target datalayout = "e-m:e-p270:32:32-p271:32:32-p272:64:64-i64:64-i128:128-f80:128-n8:16:32:64-S128"
target triple = "x86_64-pc-linux-gnu"

%"class.std::__cxx11::basic_string" = type { %"struct.std::__cxx11::basic_string<char>::_Alloc_hider", i64, %union.anon }
%"struct.std::__cxx11::basic_string<char>::_Alloc_hider" = type { ptr }
%union.anon = type { i64, [8 x i8] }
%"class.std::__cxx11::basic_istringstream" = type { %"class.std::basic_istream.base", %"class.std::__cxx11::basic_stringbuf", %"class.std::basic_ios" }
%"class.std::basic_istream.base" = type { ptr, i64 }
%"class.std::__cxx11::basic_stringbuf" = type { %"class.std::basic_streambuf", i32, %"class.std::__cxx11::basic_string" }
%"class.std::basic_streambuf" = type { ptr, ptr, ptr, ptr, ptr, ptr, ptr, %"class.std::locale" }
%"class.std::locale" = type { ptr }
%"class.std::basic_ios" = type { %"class.std::ios_base", ptr, i8, i8, ptr, ptr, ptr, ptr }
%"class.std::ios_base" = type { ptr, i64, i64, i32, i32, i32, ptr, %"struct.std::ios_base::_Words", [8 x %"struct.std::ios_base::_Words"], i32, ptr, %"class.std::locale" }
%"struct.std::ios_base::_Words" = type { ptr, i64 }

; Function Attrs: inlinehint mustprogress nounwind uwtable
define linkonce_odr noundef i32 @_ZStorSt12_Ios_IostateS_(i32 noundef %0, i32 noundef %1) #3 comdat {
  %3 = alloca i32, align 4
  %4 = alloca i32, align 4
  store i32 %0, ptr %3, align 4, !tbaa !118
  store i32 %1, ptr %4, align 4, !tbaa !118
  %5 = load i32, ptr %3, align 4, !tbaa !118
  %6 = load i32, ptr %4, align 4, !tbaa !118
  %7 = or i32 %5, %6
  ret i32 %7
}

; Function Attrs: inlinehint mustprogress nounwind uwtable
define linkonce_odr noundef i32 @_ZStanSt12_Ios_IostateS_(i32 noundef %0, i32 noundef %1) #3 comdat {
  %3 = alloca i32, align 4
  %4 = alloca i32, align 4
  store i32 %0, ptr %3, align 4, !tbaa !118
  store i32 %1, ptr %4, align 4, !tbaa !118
  %5 = load i32, ptr %3, align 4, !tbaa !118
  %6 = load i32, ptr %4, align 4, !tbaa !118
  %7 = and i32 %5, %6
  ret i32 %7
}

; Function Attrs: mustprogress nounwind uwtable
define available_externally noundef i32 @_ZNKSt9basic_iosIcSt11char_traitsIcEE7rdstateEv(ptr noundef nonnull align 8 dereferenceable(264) %0) #2 align 2 {
  %2 = alloca ptr, align 8
  store ptr %0, ptr %2, align 8, !tbaa !41
  %3 = load ptr, ptr %2, align 8
  %4 = getelementptr inbounds nuw %"class.std::ios_base", ptr %3, i32 0, i32 5
  %5 = load i32, ptr %4, align 8, !tbaa !119
  ret i32 %5
}

; Function Attrs: mustprogress nounwind uwtable
define available_externally noundef ptr @_ZNKSt7__cxx1112basic_stringIcSt11char_traitsIcESaIcEE7_M_dataEv(ptr noundef nonnull align 8 dereferenceable(32) %0) #2 align 2 {
  %2 = alloca ptr, align 8
  store ptr %0, ptr %2, align 8, !tbaa !3
  %3 = load ptr, ptr %2, align 8
  %4 = getelementptr inbounds nuw %"class.std::__cxx11::basic_string", ptr %3, i32 0, i32 0
  %5 = getelementptr inbounds nuw %"struct.std::__cxx11::basic_string<char>::_Alloc_hider", ptr %4, i32 0, i32 0
  %6 = load ptr, ptr %5, align 8, !tbaa !65
  ret ptr %6
}

; Function Attrs: mustprogress uwtable
define available_externally noundef zeroext i1 @_ZNKSt9basic_iosIcSt11char_traitsIcEE4failEv(ptr noundef nonnull align 8 dereferenceable(264) %0) #0 align 2 {
  %2 = alloca ptr, align 8
  store ptr %0, ptr %2, align 8, !tbaa !41
  %3 = load ptr, ptr %2, align 8
  %4 = call noundef i32 @_ZNKSt9basic_iosIcSt11char_traitsIcEE7rdstateEv(ptr noundef nonnull align 8 dereferenceable(264) %3)
  %5 = call noundef i32 @_ZStorSt12_Ios_IostateS_(i32 noundef 1, i32 noundef 4)
  %6 = call noundef i32 @_ZStanSt12_Ios_IostateS_(i32 noundef %4, i32 noundef %5)
  %7 = icmp ne i32 %6, 0
  ret i1 %7
}

; Function Attrs: mustprogress uwtable
define available_externally noundef zeroext i1 @_ZNKSt9basic_iosIcSt11char_traitsIcEE3eofEv(ptr noundef nonnull align 8 dereferenceable(264) %0) #0 align 2 {
  %2 = alloca ptr, align 8
  store ptr %0, ptr %2, align 8, !tbaa !41
  %3 = load ptr, ptr %2, align 8
  %4 = call noundef i32 @_ZNKSt9basic_iosIcSt11char_traitsIcEE7rdstateEv(ptr noundef nonnull align 8 dereferenceable(264) %3)
  %5 = call noundef i32 @_ZStanSt12_Ios_IostateS_(i32 noundef %4, i32 noundef 2)
  %6 = icmp ne i32 %5, 0
  ret i1 %6
}

; Function Attrs: mustprogress uwtable
define available_externally noundef nonnull align 8 dereferenceable(16) ptr @_ZNSirsERd(ptr noundef nonnull align 8 dereferenceable(16) %0, ptr noundef nonnull align 8 dereferenceable(8) %1) #0 align 2 {
  %3 = alloca ptr, align 8
  %4 = alloca ptr, align 8
  store ptr %0, ptr %3, align 8, !tbaa !37
  store ptr %1, ptr %4, align 8, !tbaa !39
  %5 = load ptr, ptr %3, align 8
  %6 = load ptr, ptr %4, align 8, !tbaa !39
  %7 = call noundef nonnull align 8 dereferenceable(16) ptr @_ZNSi10_M_extractIdEERSiRT_(ptr noundef nonnull align 8 dereferenceable(16) %5, ptr noundef nonnull align 8 dereferenceable(8) %6)
  ret ptr %7
}

; Function Attrs: mustprogress nounwind uwtable
define available_externally noundef nonnull align 1 dereferenceable(1) ptr @_ZNKSt7__cxx1112basic_stringIcSt11char_traitsIcESaIcEEixEm(ptr noundef nonnull align 8 dereferenceable(32) %0, i64 noundef %1) #2 align 2 {
  %3 = alloca ptr, align 8
  %4 = alloca i64, align 8
  store ptr %0, ptr %3, align 8, !tbaa !3
  store i64 %1, ptr %4, align 8, !tbaa !8
  %5 = load ptr, ptr %3, align 8
  br label %6

6:                                                ; preds = %2
  br label %7

7:                                                ; preds = %6
  br label %8

8:                                                ; preds = %7
  %9 = call noundef ptr @_ZNKSt7__cxx1112basic_stringIcSt11char_traitsIcESaIcEE7_M_dataEv(ptr noundef nonnull align 8 dereferenceable(32) %5)
  %10 = load i64, ptr %4, align 8, !tbaa !8
  %11 = getelementptr inbounds nuw i8, ptr %9, i64 %10
  ret ptr %11
}

; Function Attrs: mustprogress nounwind uwtable
define available_externally noundef i64 @_ZNKSt7__cxx1112basic_stringIcSt11char_traitsIcESaIcEE4sizeEv(ptr noundef nonnull align 8 dereferenceable(32) %0) #2 align 2 {
  %2 = alloca ptr, align 8
  store ptr %0, ptr %2, align 8, !tbaa !3
  %3 = load ptr, ptr %2, align 8
  %4 = getelementptr inbounds nuw %"class.std::__cxx11::basic_string", ptr %3, i32 0, i32 1
  %5 = load i64, ptr %4, align 8, !tbaa !12
  ret i64 %5
}

; Function Attrs: mustprogress uwtable
define hidden noundef double @_ZN5osgeo4proj8internal13c_locale_stodERKNSt7__cxx1112basic_stringIcSt11char_traitsIcESaIcEEERb(ptr noundef nonnull align 8 dereferenceable(32) %0, ptr noundef nonnull align 1 dereferenceable(1) %1) #0 personality ptr @__gxx_personality_v0 {
  %3 = alloca double, align 8
  %4 = alloca ptr, align 8
  %5 = alloca ptr, align 8
  %6 = alloca i64, align 8
  %7 = alloca i64, align 8
  %8 = alloca i64, align 8
  %9 = alloca i8, align 1
  %10 = alloca i64, align 8
  %11 = alloca i8, align 1
  %12 = alloca i32, align 4
  %13 = alloca %"class.std::__cxx11::basic_istringstream", align 8
  %14 = alloca %"class.std::locale", align 8
  %15 = alloca ptr, align 8
  %16 = alloca i32, align 4
  %17 = alloca double, align 8
  store ptr %0, ptr %4, align 8, !tbaa !3
  store ptr %1, ptr %5, align 8, !tbaa !28
  %18 = load ptr, ptr %5, align 8, !tbaa !28
  store i8 1, ptr %18, align 1, !tbaa !24
  call void @llvm.lifetime.start.p0(i64 8, ptr %6) #16
  %19 = load ptr, ptr %4, align 8, !tbaa !3
  %20 = call noundef i64 @_ZNKSt7__cxx1112basic_stringIcSt11char_traitsIcESaIcEE4sizeEv(ptr noundef nonnull align 8 dereferenceable(32) %19) #16
  store i64 %20, ptr %6, align 8, !tbaa !8
  %21 = load i64, ptr %6, align 8, !tbaa !8
  %22 = icmp ugt i64 %21, 0
  br i1 %22, label %23, label %99

23:                                               ; preds = %2
  %24 = load i64, ptr %6, align 8, !tbaa !8
  %25 = icmp ult i64 %24, 15
  br i1 %25, label %26, label %99

26:                                               ; preds = %23
  call void @llvm.lifetime.start.p0(i64 8, ptr %7) #16
  store i64 0, ptr %7, align 8, !tbaa !8
  call void @llvm.lifetime.start.p0(i64 8, ptr %8) #16
  store i64 1, ptr %8, align 8, !tbaa !8
  call void @llvm.lifetime.start.p0(i64 1, ptr %9) #16
  store i8 0, ptr %9, align 1, !tbaa !24
  call void @llvm.lifetime.start.p0(i64 8, ptr %10) #16
  store i64 0, ptr %10, align 8, !tbaa !8
  %27 = load ptr, ptr %4, align 8, !tbaa !3
  %28 = call noundef nonnull align 1 dereferenceable(1) ptr @_ZNKSt7__cxx1112basic_stringIcSt11char_traitsIcESaIcEEixEm(ptr noundef nonnull align 8 dereferenceable(32) %27, i64 noundef 0) #16
  %29 = load i8, ptr %28, align 1, !tbaa !17
  %30 = sext i8 %29 to i32
  %31 = icmp eq i32 %30, 45
  br i1 %31, label %32, label %35

32:                                               ; preds = %26
  %33 = load i64, ptr %10, align 8, !tbaa !8
  %34 = add i64 %33, 1
  store i64 %34, ptr %10, align 8, !tbaa !8
  store i64 -1, ptr %8, align 8, !tbaa !8
  br label %45

35:                                               ; preds = %26
  %36 = load ptr, ptr %4, align 8, !tbaa !3
  %37 = call noundef nonnull align 1 dereferenceable(1) ptr @_ZNKSt7__cxx1112basic_stringIcSt11char_traitsIcESaIcEEixEm(ptr noundef nonnull align 8 dereferenceable(32) %36, i64 noundef 0) #16
  %38 = load i8, ptr %37, align 1, !tbaa !17
  %39 = sext i8 %38 to i32
  %40 = icmp eq i32 %39, 43
  br i1 %40, label %41, label %44

41:                                               ; preds = %35
  %42 = load i64, ptr %10, align 8, !tbaa !8
  %43 = add i64 %42, 1
  store i64 %43, ptr %10, align 8, !tbaa !8
  br label %44

44:                                               ; preds = %41, %35
  br label %45

45:                                               ; preds = %44, %32
  br label %46

46:                                               ; preds = %83, %45
  %47 = load i64, ptr %10, align 8, !tbaa !8
  %48 = load i64, ptr %6, align 8, !tbaa !8
  %49 = icmp ult i64 %47, %48
  br i1 %49, label %50, label %86

50:                                               ; preds = %46
  call void @llvm.lifetime.start.p0(i64 1, ptr %11) #16
  %51 = load ptr, ptr %4, align 8, !tbaa !3
  %52 = load i64, ptr %10, align 8, !tbaa !8
  %53 = call noundef nonnull align 1 dereferenceable(1) ptr @_ZNKSt7__cxx1112basic_stringIcSt11char_traitsIcESaIcEEixEm(ptr noundef nonnull align 8 dereferenceable(32) %51, i64 noundef %52) #16
  %54 = load i8, ptr %53, align 1, !tbaa !17
  store i8 %54, ptr %11, align 1, !tbaa !17
  %55 = load i8, ptr %11, align 1, !tbaa !17
  %56 = sext i8 %55 to i32
  %57 = icmp sge i32 %56, 48
  br i1 %57, label %58, label %75

58:                                               ; preds = %50
  %59 = load i8, ptr %11, align 1, !tbaa !17
  %60 = sext i8 %59 to i32
  %61 = icmp sle i32 %60, 57
  br i1 %61, label %62, label %75

62:                                               ; preds = %58
  %63 = load i64, ptr %7, align 8, !tbaa !8
  %64 = mul nsw i64 %63, 10
  %65 = load i8, ptr %11, align 1, !tbaa !17
  %66 = sext i8 %65 to i64
  %67 = add nsw i64 %64, %66
  %68 = sub nsw i64 %67, 48
  store i64 %68, ptr %7, align 8, !tbaa !8
  %69 = load i8, ptr %9, align 1, !tbaa !24, !range !26, !noundef !27
  %70 = trunc i8 %69 to i1
  br i1 %70, label %71, label %74

71:                                               ; preds = %62
  %72 = load i64, ptr %8, align 8, !tbaa !8
  %73 = mul nsw i64 %72, 10
  store i64 %73, ptr %8, align 8, !tbaa !8
  br label %74

74:                                               ; preds = %71, %62
  br label %82

75:                                               ; preds = %58, %50
  %76 = load i8, ptr %11, align 1, !tbaa !17
  %77 = sext i8 %76 to i32
  %78 = icmp eq i32 %77, 46
  br i1 %78, label %79, label %80

79:                                               ; preds = %75
  store i8 1, ptr %9, align 1, !tbaa !24
  br label %81

80:                                               ; preds = %75
  store i64 0, ptr %8, align 8, !tbaa !8
  br label %81

81:                                               ; preds = %80, %79
  br label %82

82:                                               ; preds = %81, %74
  call void @llvm.lifetime.end.p0(i64 1, ptr %11) #16
  br label %83

83:                                               ; preds = %82
  %84 = load i64, ptr %10, align 8, !tbaa !8
  %85 = add i64 %84, 1
  store i64 %85, ptr %10, align 8, !tbaa !8
  br label %46, !llvm.loop !30

86:                                               ; preds = %46
  %87 = load i64, ptr %8, align 8, !tbaa !8
  %88 = icmp ne i64 %87, 0
  br i1 %88, label %89, label %95

89:                                               ; preds = %86
  %90 = load i64, ptr %7, align 8, !tbaa !8
  %91 = sitofp i64 %90 to double
  %92 = load i64, ptr %8, align 8, !tbaa !8
  %93 = sitofp i64 %92 to double
  %94 = fdiv double %91, %93
  store double %94, ptr %3, align 8
  store i32 1, ptr %12, align 4
  br label %96

95:                                               ; preds = %86
  store i32 0, ptr %12, align 4
  br label %96

96:                                               ; preds = %95, %89
  call void @llvm.lifetime.end.p0(i64 8, ptr %10) #16
  call void @llvm.lifetime.end.p0(i64 1, ptr %9) #16
  call void @llvm.lifetime.end.p0(i64 8, ptr %8) #16
  call void @llvm.lifetime.end.p0(i64 8, ptr %7) #16
  %97 = load i32, ptr %12, align 4
  switch i32 %97, label %136 [
    i32 0, label %98
  ]

98:                                               ; preds = %96
  br label %99

99:                                               ; preds = %98, %23, %2
  call void @llvm.lifetime.start.p0(i64 384, ptr %13) #16
  %100 = load ptr, ptr %4, align 8, !tbaa !3
  call void @_ZNSt7__cxx1119basic_istringstreamIcSt11char_traitsIcESaIcEEC1ERKNS_12basic_stringIcS2_S3_EESt13_Ios_Openmode(ptr noundef nonnull align 8 dereferenceable(120) %13, ptr noundef nonnull align 8 dereferenceable(32) %100, i32 noundef 8)
  %101 = load ptr, ptr %13, align 8, !tbaa !31
  %102 = getelementptr i8, ptr %101, i64 -24
  %103 = load i64, ptr %102, align 8
  %104 = getelementptr inbounds i8, ptr %13, i64 %103
  %105 = invoke noundef nonnull align 8 dereferenceable(8) ptr @_ZNSt6locale7classicEv()
          to label %106 unwind label %125

106:                                              ; preds = %99
  invoke void @_ZNSt9basic_iosIcSt11char_traitsIcEE5imbueERKSt6locale(ptr dead_on_unwind writable sret(%"class.std::locale") align 8 %14, ptr noundef nonnull align 8 dereferenceable(264) %104, ptr noundef nonnull align 8 dereferenceable(8) %105)
          to label %107 unwind label %125

107:                                              ; preds = %106
  call void @_ZNSt6localeD1Ev(ptr noundef nonnull align 8 dereferenceable(8) %14) #16
  call void @llvm.lifetime.start.p0(i64 8, ptr %17) #16
  %108 = invoke noundef nonnull align 8 dereferenceable(16) ptr @_ZNSirsERd(ptr noundef nonnull align 8 dereferenceable(16) %13, ptr noundef nonnull align 8 dereferenceable(8) %17)
          to label %109 unwind label %129

109:                                              ; preds = %107
  %110 = load ptr, ptr %13, align 8, !tbaa !31
  %111 = getelementptr i8, ptr %110, i64 -24
  %112 = load i64, ptr %111, align 8
  %113 = getelementptr inbounds i8, ptr %13, i64 %112
  %114 = invoke noundef zeroext i1 @_ZNKSt9basic_iosIcSt11char_traitsIcEE3eofEv(ptr noundef nonnull align 8 dereferenceable(264) %113)
          to label %115 unwind label %129

115:                                              ; preds = %109
  br i1 %114, label %116, label %123

116:                                              ; preds = %115
  %117 = load ptr, ptr %13, align 8, !tbaa !31
  %118 = getelementptr i8, ptr %117, i64 -24
  %119 = load i64, ptr %118, align 8
  %120 = getelementptr inbounds i8, ptr %13, i64 %119
  %121 = invoke noundef zeroext i1 @_ZNKSt9basic_iosIcSt11char_traitsIcEE4failEv(ptr noundef nonnull align 8 dereferenceable(264) %120)
          to label %122 unwind label %129

122:                                              ; preds = %116
  br i1 %121, label %123, label %133

123:                                              ; preds = %122, %115
  %124 = load ptr, ptr %5, align 8, !tbaa !28
  store i8 0, ptr %124, align 1, !tbaa !24
  store double 0.000000e+00, ptr %17, align 8, !tbaa !22
  br label %133

125:                                              ; preds = %106, %99
  %126 = landingpad { ptr, i32 }
          cleanup
  %127 = extractvalue { ptr, i32 } %126, 0
  store ptr %127, ptr %15, align 8
  %128 = extractvalue { ptr, i32 } %126, 1
  store i32 %128, ptr %16, align 4
  br label %135

129:                                              ; preds = %116, %109, %107
  %130 = landingpad { ptr, i32 }
          cleanup
  %131 = extractvalue { ptr, i32 } %130, 0
  store ptr %131, ptr %15, align 8
  %132 = extractvalue { ptr, i32 } %130, 1
  store i32 %132, ptr %16, align 4
  call void @llvm.lifetime.end.p0(i64 8, ptr %17) #16
  br label %135

133:                                              ; preds = %123, %122
  %134 = load double, ptr %17, align 8, !tbaa !22
  store double %134, ptr %3, align 8
  store i32 1, ptr %12, align 4
  call void @llvm.lifetime.end.p0(i64 8, ptr %17) #16
  call void @_ZNSt7__cxx1119basic_istringstreamIcSt11char_traitsIcESaIcEED1Ev(ptr noundef nonnull align 8 dereferenceable(120) %13) #16
  call void @llvm.lifetime.end.p0(i64 384, ptr %13) #16
  br label %136

135:                                              ; preds = %129, %125
  call void @_ZNSt7__cxx1119basic_istringstreamIcSt11char_traitsIcESaIcEED1Ev(ptr noundef nonnull align 8 dereferenceable(120) %13) #16
  call void @llvm.lifetime.end.p0(i64 384, ptr %13) #16
  call void @llvm.lifetime.end.p0(i64 8, ptr %6) #16
  br label %138

136:                                              ; preds = %133, %96
  call void @llvm.lifetime.end.p0(i64 8, ptr %6) #16
  %137 = load double, ptr %3, align 8
  ret double %137

138:                                              ; preds = %135
  %139 = load ptr, ptr %15, align 8
  %140 = load i32, ptr %16, align 4
  %141 = insertvalue { ptr, i32 } poison, ptr %139, 0
  %142 = insertvalue { ptr, i32 } %141, i32 %140, 1
  resume { ptr, i32 } %142
}