; Function Attrs: mustprogress uwtable
define hidden noundef double @_ZN5osgeo4proj8internal13c_locale_stodERKNSt7__cxx1112basic_stringIcSt11char_traitsIcESaIcEEERb(ptr noundef nonnull align 8 dereferenceable(32) %0, ptr noundef nonnull writeonly align 1 captures(none) dereferenceable(1) initializes((0, 1)) %1) local_unnamed_addr #0 personality ptr @__gxx_personality_v0 {
  %3 = alloca %"class.std::__cxx11::basic_istringstream", align 8
  %4 = alloca %"class.std::locale", align 8
  %5 = alloca double, align 8
  store i8 1, ptr %1, align 1, !tbaa !24
  %6 = getelementptr inbounds nuw i8, ptr %0, i64 8
  %7 = load i64, ptr %6, align 8, !tbaa !12
  %8 = add i64 %7, -1
  %or.cond = icmp ult i64 %8, 14
  br i1 %or.cond, label %9, label %33

9:                                                ; preds = %2
  %10 = load ptr, ptr %0, align 8, !tbaa !9
  %11 = load i8, ptr %10, align 1, !tbaa !14
  %12 = icmp eq i8 %11, 45
  %13 = icmp eq i8 %11, 43
  %.039 = select i1 %12, i64 -1, i64 1
  %narrow = or i1 %12, %13
  %.035 = zext i1 %narrow to i64
  %14 = icmp samesign ugt i64 %7, %.035
  br i1 %14, label %.lr.ph, label %._crit_edge.thread

._crit_edge.thread:                               ; preds = %9
  %15 = sitofp i64 %.039 to double
  %16 = fdiv double 0.000000e+00, %15
  br label %81

.lr.ph:                                           ; preds = %9, %28
  %.13651 = phi i64 [ %29, %28 ], [ %.035, %9 ]
  %.03750 = phi i1 [ %.138, %28 ], [ false, %9 ]
  %.14049 = phi i64 [ %.2, %28 ], [ %.039, %9 ]
  %.04148 = phi i64 [ %.142, %28 ], [ 0, %9 ]
  %17 = getelementptr inbounds nuw i8, ptr %10, i64 %.13651
  %18 = load i8, ptr %17, align 1, !tbaa !14
  %19 = add i8 %18, -48
  %or.cond4 = icmp ult i8 %19, 10
  br i1 %or.cond4, label %20, label %26

20:                                               ; preds = %.lr.ph
  %21 = mul nsw i64 %.04148, 10
  %22 = zext nneg i8 %18 to i64
  %23 = add i64 %21, -48
  %24 = add i64 %23, %22
  %25 = mul nsw i64 %.14049, 10
  %spec.select45 = select i1 %.03750, i64 %25, i64 %.14049
  br label %28

26:                                               ; preds = %.lr.ph
  %27 = icmp eq i8 %18, 46
  %.140. = select i1 %27, i64 %.14049, i64 0
  %..037 = select i1 %27, i1 true, i1 %.03750
  br label %28

28:                                               ; preds = %20, %26
  %.142 = phi i64 [ %24, %20 ], [ %.04148, %26 ]
  %.2 = phi i64 [ %spec.select45, %20 ], [ %.140., %26 ]
  %.138 = phi i1 [ %.03750, %20 ], [ %..037, %26 ]
  %29 = add nuw nsw i64 %.13651, 1
  %exitcond.not = icmp eq i64 %29, %7
  br i1 %exitcond.not, label %._crit_edge, label %.lr.ph, !llvm.loop !28

._crit_edge:                                      ; preds = %28
  %30 = sitofp i64 %.142 to double
  %.not = icmp eq i64 %.2, 0
  %31 = sitofp i64 %.2 to double
  %32 = fdiv double %30, %31
  br i1 %.not, label %33, label %81

33:                                               ; preds = %._crit_edge, %2
  call void @llvm.lifetime.start.p0(i64 384, ptr nonnull %3) #21
  call void @_ZNSt7__cxx1119basic_istringstreamIcSt11char_traitsIcESaIcEEC1ERKNS_12basic_stringIcS2_S3_EESt13_Ios_Openmode(ptr noundef nonnull align 8 dereferenceable(120) %3, ptr noundef nonnull align 8 dereferenceable(32) %0, i32 noundef 8)
  %34 = load ptr, ptr %3, align 8, !tbaa !29
  %35 = getelementptr i8, ptr %34, i64 -24
  %36 = load i64, ptr %35, align 8
  %37 = invoke noundef nonnull align 8 dereferenceable(8) ptr @_ZNSt6locale7classicEv()
          to label %38 unwind label %51

38:                                               ; preds = %33
  %39 = getelementptr inbounds i8, ptr %3, i64 %36
  invoke void @_ZNSt9basic_iosIcSt11char_traitsIcEE5imbueERKSt6locale(ptr dead_on_unwind nonnull writable sret(%"class.std::locale") align 8 %4, ptr noundef nonnull align 8 dereferenceable(264) %39, ptr noundef nonnull align 8 dereferenceable(8) %37)
          to label %40 unwind label %51

40:                                               ; preds = %38
  call void @_ZNSt6localeD1Ev(ptr noundef nonnull align 8 dereferenceable(8) %4) #21
  call void @llvm.lifetime.start.p0(i64 8, ptr nonnull %5) #21
  %41 = invoke noundef nonnull align 8 dereferenceable(16) ptr @_ZNSi10_M_extractIdEERSiRT_(ptr noundef nonnull align 8 dereferenceable(16) %3, ptr noundef nonnull align 8 dereferenceable(8) %5)
          to label %42 unwind label %53

42:                                               ; preds = %40
  %43 = load ptr, ptr %3, align 8, !tbaa !29
  %44 = getelementptr i8, ptr %43, i64 -24
  %45 = load i64, ptr %44, align 8
  %46 = getelementptr inbounds i8, ptr %3, i64 %45
  %47 = getelementptr inbounds nuw i8, ptr %46, i64 32
  %48 = load i32, ptr %47, align 8, !tbaa !31
  %49 = and i32 %48, 7
  %or.cond47.not = icmp eq i32 %49, 2
  br i1 %or.cond47.not, label %._crit_edge53, label %50

._crit_edge53:                                    ; preds = %42
  %.pre = load double, ptr %5, align 8, !tbaa !41
  br label %55

50:                                               ; preds = %42
  store i8 0, ptr %1, align 1, !tbaa !24
  br label %55

51:                                               ; preds = %38, %33
  %52 = landingpad { ptr, i32 }
          cleanup
  br label %80

53:                                               ; preds = %40
  %54 = landingpad { ptr, i32 }
          cleanup
  call void @llvm.lifetime.end.p0(i64 8, ptr nonnull %5) #21
  br label %80

55:                                               ; preds = %._crit_edge53, %50
  %56 = phi double [ %.pre, %._crit_edge53 ], [ 0.000000e+00, %50 ]
  call void @llvm.lifetime.end.p0(i64 8, ptr nonnull %5) #21
  %57 = load ptr, ptr @_ZTTNSt7__cxx1119basic_istringstreamIcSt11char_traitsIcESaIcEEE, align 8
  store ptr %57, ptr %3, align 8, !tbaa !29
  %58 = load ptr, ptr getelementptr inbounds nuw (i8, ptr @_ZTTNSt7__cxx1119basic_istringstreamIcSt11char_traitsIcESaIcEEE, i64 24), align 8
  %59 = getelementptr i8, ptr %57, i64 -24
  %60 = load i64, ptr %59, align 8
  %61 = getelementptr inbounds i8, ptr %3, i64 %60
  store ptr %58, ptr %61, align 8, !tbaa !29
  %62 = getelementptr inbounds nuw i8, ptr %3, i64 16
  store ptr getelementptr inbounds nuw inrange(-16, 112) (i8, ptr @_ZTVNSt7__cxx1115basic_stringbufIcSt11char_traitsIcESaIcEEE, i64 16), ptr %62, align 8, !tbaa !29
  %63 = getelementptr inbounds nuw i8, ptr %3, i64 88
  %64 = load ptr, ptr %63, align 8, !tbaa !9
  %65 = getelementptr inbounds nuw i8, ptr %3, i64 104
  %66 = icmp eq ptr %64, %65
  br i1 %66, label %_ZNKSt7__cxx1112basic_stringIcSt11char_traitsIcESaIcEE11_M_is_localEv.exit.thread.i.i.i.i.i, label %_ZNKSt7__cxx1112basic_stringIcSt11char_traitsIcESaIcEE11_M_is_localEv.exit.i.i.i.i.i

_ZNKSt7__cxx1112basic_stringIcSt11char_traitsIcESaIcEE11_M_is_localEv.exit.thread.i.i.i.i.i: ; preds = %55
  %67 = getelementptr inbounds nuw i8, ptr %3, i64 96
  %68 = load i64, ptr %67, align 8, !tbaa !12
  %69 = icmp ult i64 %68, 16
  call void @llvm.assume(i1 %69)
  br label %_ZNSt7__cxx1119basic_istringstreamIcSt11char_traitsIcESaIcEED1Ev.exit

_ZNKSt7__cxx1112basic_stringIcSt11char_traitsIcESaIcEE11_M_is_localEv.exit.i.i.i.i.i: ; preds = %55
  %70 = load i64, ptr %65, align 8, !tbaa !14
  %71 = add i64 %70, 1
  call void @_ZdlPvm(ptr noundef %64, i64 noundef %71) #23
  br label %_ZNSt7__cxx1119basic_istringstreamIcSt11char_traitsIcESaIcEED1Ev.exit

_ZNSt7__cxx1119basic_istringstreamIcSt11char_traitsIcESaIcEED1Ev.exit: ; preds = %_ZNKSt7__cxx1112basic_stringIcSt11char_traitsIcESaIcEE11_M_is_localEv.exit.thread.i.i.i.i.i, %_ZNKSt7__cxx1112basic_stringIcSt11char_traitsIcESaIcEE11_M_is_localEv.exit.i.i.i.i.i
  store ptr getelementptr inbounds nuw inrange(-16, 112) (i8, ptr @_ZTVSt15basic_streambufIcSt11char_traitsIcEE, i64 16), ptr %62, align 8, !tbaa !29
  %72 = getelementptr inbounds nuw i8, ptr %3, i64 72
  call void @_ZNSt6localeD1Ev(ptr noundef nonnull align 8 dereferenceable(8) %72) #21
  %73 = load ptr, ptr getelementptr inbounds nuw (i8, ptr @_ZTTNSt7__cxx1119basic_istringstreamIcSt11char_traitsIcESaIcEEE, i64 8), align 8
  store ptr %73, ptr %3, align 8, !tbaa !29
  %74 = load ptr, ptr getelementptr inbounds nuw (i8, ptr @_ZTTNSt7__cxx1119basic_istringstreamIcSt11char_traitsIcESaIcEEE, i64 16), align 8
  %75 = getelementptr i8, ptr %73, i64 -24
  %76 = load i64, ptr %75, align 8
  %77 = getelementptr inbounds i8, ptr %3, i64 %76
  store ptr %74, ptr %77, align 8, !tbaa !29
  %78 = getelementptr inbounds nuw i8, ptr %3, i64 8
  store i64 0, ptr %78, align 8, !tbaa !43
  %79 = getelementptr inbounds nuw i8, ptr %3, i64 120
  call void @_ZNSt8ios_baseD2Ev(ptr noundef nonnull align 8 dereferenceable(264) %79) #21
  call void @llvm.lifetime.end.p0(i64 384, ptr nonnull %3) #21
  br label %81

80:                                               ; preds = %53, %51
  %.pn = phi { ptr, i32 } [ %54, %53 ], [ %52, %51 ]
  call void @_ZNSt7__cxx1119basic_istringstreamIcSt11char_traitsIcESaIcEED1Ev(ptr noundef nonnull align 8 dereferenceable(120) %3) #21
  call void @llvm.lifetime.end.p0(i64 384, ptr nonnull %3) #21
  resume { ptr, i32 } %.pn

81:                                               ; preds = %._crit_edge.thread, %._crit_edge, %_ZNSt7__cxx1119basic_istringstreamIcSt11char_traitsIcESaIcEED1Ev.exit
  %.1 = phi double [ %56, %_ZNSt7__cxx1119basic_istringstreamIcSt11char_traitsIcESaIcEED1Ev.exit ], [ %32, %._crit_edge ], [ %16, %._crit_edge.thread ]
  ret double %.1
}